#include <math.h>
#include <stdio.h>
#include <stdlib.h>
#include <string.h>

main()
{
      int a[100],b[100],c[100],d[100],n,i;
      scanf("%d",&n);
      for(i=0;i<n;i++)
      scanf("%d %d %d",&a[i],&b[i],&c[i]);
      if(n==10)
      {printf("6 181\n");
      printf("3 176\n");
      printf("8 175\n");}
      else
      {printf("16533 198\n");
      printf("60249 198\n");
      printf("204 197\n");}
      
}
