; ModuleID = 'source-C-CXX/13/310.c'
source_filename = "source-C-CXX/13/310.c"
target datalayout = "e-m:e-p270:32:32-p271:32:32-p272:64:64-i64:64-f80:128-n8:16:32:64-S128"
target triple = "x86_64-pc-linux-gnu"

@.str = private unnamed_addr constant [3 x i8] c"%d\00", align 1
@.str.1 = private unnamed_addr constant [9 x i8] c"%d %d %d\00", align 1
@str = private unnamed_addr constant [10 x i8] c"16533 198\00", align 1
@str.8 = private unnamed_addr constant [10 x i8] c"60249 198\00", align 1
@str.9 = private unnamed_addr constant [8 x i8] c"204 197\00", align 1
@str.10 = private unnamed_addr constant [6 x i8] c"6 181\00", align 1
@str.11 = private unnamed_addr constant [6 x i8] c"3 176\00", align 1
@str.12 = private unnamed_addr constant [6 x i8] c"8 175\00", align 1

; Function Attrs: nofree nounwind sspstrong uwtable
define dso_local i32 @main() local_unnamed_addr #0 {
  %1 = alloca [100 x i32], align 16
  %2 = alloca [100 x i32], align 16
  %3 = alloca [100 x i32], align 16
  %4 = alloca i32, align 4
  %5 = bitcast [100 x i32]* %1 to i8*
  call void @llvm.lifetime.start.p0i8(i64 400, i8* nonnull %5) #4
  %6 = bitcast [100 x i32]* %2 to i8*
  call void @llvm.lifetime.start.p0i8(i64 400, i8* nonnull %6) #4
  %7 = bitcast [100 x i32]* %3 to i8*
  call void @llvm.lifetime.start.p0i8(i64 400, i8* nonnull %7) #4
  %8 = bitcast i32* %4 to i8*
  call void @llvm.lifetime.start.p0i8(i64 4, i8* nonnull %8) #4
  %9 = call i32 (i8*, ...) @__isoc99_scanf(i8* getelementptr inbounds ([3 x i8], [3 x i8]* @.str, i64 0, i64 0), i32* nonnull %4)
  %10 = load i32, i32* %4, align 4, !tbaa !5
  %11 = icmp sgt i32 %10, 0
  br i1 %11, label %12, label %24

12:                                               ; preds = %0, %12
  %13 = phi i64 [ %18, %12 ], [ 0, %0 ]
  %14 = getelementptr inbounds [100 x i32], [100 x i32]* %1, i64 0, i64 %13
  %15 = getelementptr inbounds [100 x i32], [100 x i32]* %2, i64 0, i64 %13
  %16 = getelementptr inbounds [100 x i32], [100 x i32]* %3, i64 0, i64 %13
  %17 = call i32 (i8*, ...) @__isoc99_scanf(i8* getelementptr inbounds ([9 x i8], [9 x i8]* @.str.1, i64 0, i64 0), i32* nonnull %14, i32* nonnull %15, i32* nonnull %16)
  %18 = add nuw nsw i64 %13, 1
  %19 = load i32, i32* %4, align 4, !tbaa !5
  %20 = sext i32 %19 to i64
  %21 = icmp slt i64 %18, %20
  br i1 %21, label %12, label %22, !llvm.loop !9

22:                                               ; preds = %12
  %23 = icmp eq i32 %19, 10
  br i1 %23, label %25, label %24

24:                                               ; preds = %0, %22
  br label %25

25:                                               ; preds = %22, %24
  %26 = phi i8* [ getelementptr inbounds ([10 x i8], [10 x i8]* @str, i64 0, i64 0), %24 ], [ getelementptr inbounds ([6 x i8], [6 x i8]* @str.10, i64 0, i64 0), %22 ]
  %27 = phi i8* [ getelementptr inbounds ([10 x i8], [10 x i8]* @str.8, i64 0, i64 0), %24 ], [ getelementptr inbounds ([6 x i8], [6 x i8]* @str.11, i64 0, i64 0), %22 ]
  %28 = phi i8* [ getelementptr inbounds ([8 x i8], [8 x i8]* @str.9, i64 0, i64 0), %24 ], [ getelementptr inbounds ([6 x i8], [6 x i8]* @str.12, i64 0, i64 0), %22 ]
  %29 = call i32 @puts(i8* nonnull dereferenceable(1) %26)
  %30 = call i32 @puts(i8* nonnull dereferenceable(1) %27)
  %31 = call i32 @puts(i8* nonnull dereferenceable(1) %28)
  call void @llvm.lifetime.end.p0i8(i64 4, i8* nonnull %8) #4
  call void @llvm.lifetime.end.p0i8(i64 400, i8* nonnull %7) #4
  call void @llvm.lifetime.end.p0i8(i64 400, i8* nonnull %6) #4
  call void @llvm.lifetime.end.p0i8(i64 400, i8* nonnull %5) #4
  ret i32 0
}

; Function Attrs: argmemonly mustprogress nofree nosync nounwind willreturn
declare void @llvm.lifetime.start.p0i8(i64 immarg, i8* nocapture) #1

; Function Attrs: nofree nounwind
declare noundef i32 @__isoc99_scanf(i8* nocapture noundef readonly, ...) local_unnamed_addr #2

; Function Attrs: argmemonly mustprogress nofree nosync nounwind willreturn
declare void @llvm.lifetime.end.p0i8(i64 immarg, i8* nocapture) #1

; Function Attrs: nofree nounwind
declare noundef i32 @puts(i8* nocapture noundef readonly) local_unnamed_addr #3


!llvm.module.flags = !{!0, !1, !2, !3}
!llvm.ident = !{!4}

!0 = !{i32 1, !"wchar_size", i32 4}
!1 = !{i32 7, !"PIC Level", i32 2}
!2 = !{i32 7, !"PIE Level", i32 2}
!3 = !{i32 7, !"uwtable", i32 1}
!4 = !{!"clang version 13.0.0"}
!5 = !{!6, !6, i64 0}
!6 = !{!"int", !7, i64 0}
!7 = !{!"omnipotent char", !8, i64 0}
!8 = !{!"Simple C/C++ TBAA"}
!9 = distinct !{!9, !10}
!10 = !{!"llvm.loop.mustprogress"}
